; Function Attrs: nounwind uwtable
define ptr @l_Lean_Expr_withAppAux___at___private_Lean_Meta_Tactic_Grind_EMatchTheorem_0__Lean_Meta_Grind_canBeSynthesized___spec__3___lambda__2___boxed(ptr noundef %0, ptr noundef %1, ptr noundef %2, ptr noundef %3, ptr noundef %4, ptr noundef %5, ptr noundef %6, ptr noundef %7, ptr noundef %8, ptr noundef %9, ptr noundef %10, ptr noundef %11, ptr noundef %12) #1 {
  %14 = getelementptr i8, ptr %5, i64 8
  %.val = load i64, ptr %14, align 8, !tbaa !12
  %15 = ptrtoint ptr %5 to i64
  %16 = and i64 %15, 1
  %.not = icmp eq i64 %16, 0
  br i1 %.not, label %17, label %lean_dec.exit24

17:                                               ; preds = %13
  %18 = load i32, ptr %5, align 4, !tbaa !4
  %19 = icmp sgt i32 %18, 1
  br i1 %19, label %20, label %22, !prof !11

20:                                               ; preds = %17
  %21 = add nsw i32 %18, -1
  store i32 %21, ptr %5, align 4, !tbaa !4
  br label %lean_dec.exit24

22:                                               ; preds = %17
  %.not.i = icmp eq i32 %18, 0
  br i1 %.not.i, label %lean_dec.exit24, label %23

23:                                               ; preds = %22
  tail call void @lean_dec_ref_cold(ptr noundef nonnull %5) #9
  br label %lean_dec.exit24

lean_dec.exit24:                                  ; preds = %23, %22, %20, %13
  %24 = tail call ptr @l_Lean_Expr_withAppAux___at___private_Lean_Meta_Tactic_Grind_EMatchTheorem_0__Lean_Meta_Grind_canBeSynthesized___spec__3___lambda__2(ptr noundef %0, ptr noundef %1, ptr noundef %2, ptr noundef %3, ptr poison, i64 noundef %.val, ptr noundef %6, ptr poison, ptr noundef %8, ptr noundef %9, ptr noundef %10, ptr noundef %11, ptr noundef %12)
  %25 = ptrtoint ptr %7 to i64
  %26 = and i64 %25, 1
  %.not35 = icmp eq i64 %26, 0
  br i1 %.not35, label %27, label %lean_dec.exit23

27:                                               ; preds = %lean_dec.exit24
  %28 = load i32, ptr %7, align 4, !tbaa !4
  %29 = icmp sgt i32 %28, 1
  br i1 %29, label %30, label %32, !prof !11

30:                                               ; preds = %27
  %31 = add nsw i32 %28, -1
  store i32 %31, ptr %7, align 4, !tbaa !4
  br label %lean_dec.exit23

32:                                               ; preds = %27
  %.not.i25 = icmp eq i32 %28, 0
  br i1 %.not.i25, label %lean_dec.exit23, label %33

33:                                               ; preds = %32
  tail call void @lean_dec_ref_cold(ptr noundef nonnull %7) #9
  br label %lean_dec.exit23

lean_dec.exit23:                                  ; preds = %33, %32, %30, %lean_dec.exit24
  %34 = ptrtoint ptr %6 to i64
  %35 = and i64 %34, 1
  %.not36 = icmp eq i64 %35, 0
  br i1 %.not36, label %36, label %lean_dec.exit22

36:                                               ; preds = %lean_dec.exit23
  %37 = load i32, ptr %6, align 4, !tbaa !4
  %38 = icmp sgt i32 %37, 1
  br i1 %38, label %39, label %41, !prof !11

39:                                               ; preds = %36
  %40 = add nsw i32 %37, -1
  store i32 %40, ptr %6, align 4, !tbaa !4
  br label %lean_dec.exit22

41:                                               ; preds = %36
  %.not.i27 = icmp eq i32 %37, 0
  br i1 %.not.i27, label %lean_dec.exit22, label %42

42:                                               ; preds = %41
  tail call void @lean_dec_ref_cold(ptr noundef nonnull %6) #9
  br label %lean_dec.exit22

lean_dec.exit22:                                  ; preds = %42, %41, %39, %lean_dec.exit23
  %43 = ptrtoint ptr %4 to i64
  %44 = and i64 %43, 1
  %.not37 = icmp eq i64 %44, 0
  br i1 %.not37, label %45, label %lean_dec.exit21

45:                                               ; preds = %lean_dec.exit22
  %46 = load i32, ptr %4, align 4, !tbaa !4
  %47 = icmp sgt i32 %46, 1
  br i1 %47, label %48, label %50, !prof !11

48:                                               ; preds = %45
  %49 = add nsw i32 %46, -1
  store i32 %49, ptr %4, align 4, !tbaa !4
  br label %lean_dec.exit21

50:                                               ; preds = %45
  %.not.i29 = icmp eq i32 %46, 0
  br i1 %.not.i29, label %lean_dec.exit21, label %51

51:                                               ; preds = %50
  tail call void @lean_dec_ref_cold(ptr noundef nonnull %4) #9
  br label %lean_dec.exit21

lean_dec.exit21:                                  ; preds = %51, %50, %48, %lean_dec.exit22
  %52 = ptrtoint ptr %3 to i64
  %53 = and i64 %52, 1
  %.not38 = icmp eq i64 %53, 0
  br i1 %.not38, label %54, label %lean_dec.exit20

54:                                               ; preds = %lean_dec.exit21
  %55 = load i32, ptr %3, align 4, !tbaa !4
  %56 = icmp sgt i32 %55, 1
  br i1 %56, label %57, label %59, !prof !11

57:                                               ; preds = %54
  %58 = add nsw i32 %55, -1
  store i32 %58, ptr %3, align 4, !tbaa !4
  br label %lean_dec.exit20

59:                                               ; preds = %54
  %.not.i31 = icmp eq i32 %55, 0
  br i1 %.not.i31, label %lean_dec.exit20, label %60

60:                                               ; preds = %59
  tail call void @lean_dec_ref_cold(ptr noundef nonnull %3) #9
  br label %lean_dec.exit20

lean_dec.exit20:                                  ; preds = %60, %59, %57, %lean_dec.exit21
  %61 = ptrtoint ptr %2 to i64
  %62 = and i64 %61, 1
  %.not39 = icmp eq i64 %62, 0
  br i1 %.not39, label %63, label %lean_dec.exit

63:                                               ; preds = %lean_dec.exit20
  %64 = load i32, ptr %2, align 4, !tbaa !4
  %65 = icmp sgt i32 %64, 1
  br i1 %65, label %66, label %68, !prof !11

66:                                               ; preds = %63
  %67 = add nsw i32 %64, -1
  store i32 %67, ptr %2, align 4, !tbaa !4
  br label %lean_dec.exit

68:                                               ; preds = %63
  %.not.i33 = icmp eq i32 %64, 0
  br i1 %.not.i33, label %lean_dec.exit, label %69

69:                                               ; preds = %68
  tail call void @lean_dec_ref_cold(ptr noundef nonnull %2) #9
  br label %lean_dec.exit

lean_dec.exit:                                    ; preds = %69, %68, %66, %lean_dec.exit20
  ret ptr %24
}